; Function Attrs: mustprogress nounwind uwtable
define dso_local void @_ZN4node9AsyncWrap18EmitPromiseResolveEPNS_11EnvironmentEd(ptr noundef %env, double noundef %async_id) local_unnamed_addr #3 align 2 {
entry:
  %principal_realm_.i = getelementptr inbounds i8, ptr %env, i64 2728
  %0 = load ptr, ptr %principal_realm_.i, align 8
  %vtable.i = load ptr, ptr %0, align 8
  %vfn.i = getelementptr inbounds i8, ptr %vtable.i, i64 168
  %1 = load ptr, ptr %vfn.i, align 8
  %call2.i = tail call ptr %1(ptr noundef nonnull align 8 dereferenceable(872) %0) #19
  tail call void @_ZN4node4EmitEPNS_11EnvironmentEdNS_10AsyncHooks6FieldsEN2v85LocalINS4_8FunctionEEE(ptr noundef nonnull %env, double noundef %async_id, i32 noundef 4, ptr %call2.i)
  ret void
}